target datalayout = "e-m:e-p270:32:32-p271:32:32-p272:64:64-i64:64-i128:128-f80:128-n8:16:32:64-S128"
target triple = "x86_64-pc-linux-gnu"

%class.anon.703 = type { i8 }
%class.anon.705 = type { i8 }
%class.anon.707 = type { i8 }
%class.anon.709 = type { i8 }
%class.anon.711 = type { i8 }
%class.anon.713 = type { i8 }
%class.anon.715 = type { i8 }
%class.anon.717 = type { i8 }
%class.anon.719 = type { i8 }
%class.anon.721 = type { i8 }
%class.anon.723 = type { i8 }
%class.anon.725 = type { i8 }
%class.anon.727 = type { i8 }
%class.anon.729 = type { i8 }
%class.anon.731 = type { i8 }
%class.anon.733 = type { i8 }

@.str.54 = private unnamed_addr constant [8 x i8] c"__index\00", align 1
@.str.57 = private unnamed_addr constant [6 x i8] c"__add\00", align 1
@.str.58 = private unnamed_addr constant [6 x i8] c"__sub\00", align 1
@.str.59 = private unnamed_addr constant [6 x i8] c"__mul\00", align 1
@.str.60 = private unnamed_addr constant [6 x i8] c"__div\00", align 1
@.str.61 = private unnamed_addr constant [6 x i8] c"__unm\00", align 1
@.str.493 = private unnamed_addr constant [6 x i8] c"int64\00", align 1
@.str.494 = private unnamed_addr constant [11 x i8] c"__newindex\00", align 1
@.str.495 = private unnamed_addr constant [5 x i8] c"__eq\00", align 1
@.str.496 = private unnamed_addr constant [5 x i8] c"__lt\00", align 1
@.str.497 = private unnamed_addr constant [5 x i8] c"__le\00", align 1
@.str.498 = private unnamed_addr constant [7 x i8] c"__idiv\00", align 1
@.str.499 = private unnamed_addr constant [6 x i8] c"__mod\00", align 1
@.str.500 = private unnamed_addr constant [6 x i8] c"__pow\00", align 1
@.str.501 = private unnamed_addr constant [11 x i8] c"__tostring\00", align 1

; Function Attrs: mustprogress nounwind uwtable
define internal noundef ptr @"_ZZZL21DOCTEST_ANON_FUNC_128vENK3$_0clEP9lua_StateENKUlS1_E13_cvPFiS1_EEv"(ptr noundef nonnull align 1 dereferenceable(1) %0) #1 align 2 {
  %2 = alloca ptr, align 8
  store ptr %0, ptr %2, align 8
  ret ptr @"_ZZZL21DOCTEST_ANON_FUNC_128vENK3$_0clEP9lua_StateENUlS1_E13_8__invokeES1_"
}

; Function Attrs: mustprogress nounwind uwtable
define internal noundef ptr @"_ZZZL21DOCTEST_ANON_FUNC_128vENK3$_0clEP9lua_StateENKUlS1_E12_cvPFiS1_EEv"(ptr noundef nonnull align 1 dereferenceable(1) %0) #1 align 2 {
  %2 = alloca ptr, align 8
  store ptr %0, ptr %2, align 8
  ret ptr @"_ZZZL21DOCTEST_ANON_FUNC_128vENK3$_0clEP9lua_StateENUlS1_E12_8__invokeES1_"
}

; Function Attrs: mustprogress nounwind uwtable
define internal noundef ptr @"_ZZZL21DOCTEST_ANON_FUNC_128vENK3$_0clEP9lua_StateENKUlS1_E11_cvPFiS1_EEv"(ptr noundef nonnull align 1 dereferenceable(1) %0) #1 align 2 {
  %2 = alloca ptr, align 8
  store ptr %0, ptr %2, align 8
  ret ptr @"_ZZZL21DOCTEST_ANON_FUNC_128vENK3$_0clEP9lua_StateENUlS1_E11_8__invokeES1_"
}

; Function Attrs: mustprogress nounwind uwtable
define internal noundef ptr @"_ZZZL21DOCTEST_ANON_FUNC_128vENK3$_0clEP9lua_StateENKUlS1_E10_cvPFiS1_EEv"(ptr noundef nonnull align 1 dereferenceable(1) %0) #1 align 2 {
  %2 = alloca ptr, align 8
  store ptr %0, ptr %2, align 8
  ret ptr @"_ZZZL21DOCTEST_ANON_FUNC_128vENK3$_0clEP9lua_StateENUlS1_E10_8__invokeES1_"
}

; Function Attrs: mustprogress nounwind uwtable
define internal noundef ptr @"_ZZZL21DOCTEST_ANON_FUNC_128vENK3$_0clEP9lua_StateENKUlS1_E9_cvPFiS1_EEv"(ptr noundef nonnull align 1 dereferenceable(1) %0) #1 align 2 {
  %2 = alloca ptr, align 8
  store ptr %0, ptr %2, align 8
  ret ptr @"_ZZZL21DOCTEST_ANON_FUNC_128vENK3$_0clEP9lua_StateENUlS1_E9_8__invokeES1_"
}

; Function Attrs: mustprogress nounwind uwtable
define internal noundef ptr @"_ZZZL21DOCTEST_ANON_FUNC_128vENK3$_0clEP9lua_StateENKUlS1_E8_cvPFiS1_EEv"(ptr noundef nonnull align 1 dereferenceable(1) %0) #1 align 2 {
  %2 = alloca ptr, align 8
  store ptr %0, ptr %2, align 8
  ret ptr @"_ZZZL21DOCTEST_ANON_FUNC_128vENK3$_0clEP9lua_StateENUlS1_E8_8__invokeES1_"
}

; Function Attrs: mustprogress nounwind uwtable
define internal noundef ptr @"_ZZZL21DOCTEST_ANON_FUNC_128vENK3$_0clEP9lua_StateENKUlS1_E7_cvPFiS1_EEv"(ptr noundef nonnull align 1 dereferenceable(1) %0) #1 align 2 {
  %2 = alloca ptr, align 8
  store ptr %0, ptr %2, align 8
  ret ptr @"_ZZZL21DOCTEST_ANON_FUNC_128vENK3$_0clEP9lua_StateENUlS1_E7_8__invokeES1_"
}

; Function Attrs: mustprogress nounwind uwtable
define internal noundef ptr @"_ZZZL21DOCTEST_ANON_FUNC_128vENK3$_0clEP9lua_StateENKUlS1_E6_cvPFiS1_EEv"(ptr noundef nonnull align 1 dereferenceable(1) %0) #1 align 2 {
  %2 = alloca ptr, align 8
  store ptr %0, ptr %2, align 8
  ret ptr @"_ZZZL21DOCTEST_ANON_FUNC_128vENK3$_0clEP9lua_StateENUlS1_E6_8__invokeES1_"
}

; Function Attrs: mustprogress nounwind uwtable
define internal noundef ptr @"_ZZZL21DOCTEST_ANON_FUNC_128vENK3$_0clEP9lua_StateENKUlS1_E5_cvPFiS1_EEv"(ptr noundef nonnull align 1 dereferenceable(1) %0) #1 align 2 {
  %2 = alloca ptr, align 8
  store ptr %0, ptr %2, align 8
  ret ptr @"_ZZZL21DOCTEST_ANON_FUNC_128vENK3$_0clEP9lua_StateENUlS1_E5_8__invokeES1_"
}

; Function Attrs: mustprogress nounwind uwtable
define internal noundef ptr @"_ZZZL21DOCTEST_ANON_FUNC_128vENK3$_0clEP9lua_StateENKUlS1_E4_cvPFiS1_EEv"(ptr noundef nonnull align 1 dereferenceable(1) %0) #1 align 2 {
  %2 = alloca ptr, align 8
  store ptr %0, ptr %2, align 8
  ret ptr @"_ZZZL21DOCTEST_ANON_FUNC_128vENK3$_0clEP9lua_StateENUlS1_E4_8__invokeES1_"
}

; Function Attrs: mustprogress nounwind uwtable
define internal noundef ptr @"_ZZZL21DOCTEST_ANON_FUNC_128vENK3$_0clEP9lua_StateENKUlS1_E3_cvPFiS1_EEv"(ptr noundef nonnull align 1 dereferenceable(1) %0) #1 align 2 {
  %2 = alloca ptr, align 8
  store ptr %0, ptr %2, align 8
  ret ptr @"_ZZZL21DOCTEST_ANON_FUNC_128vENK3$_0clEP9lua_StateENUlS1_E3_8__invokeES1_"
}

; Function Attrs: mustprogress nounwind uwtable
define internal noundef ptr @"_ZZZL21DOCTEST_ANON_FUNC_128vENK3$_0clEP9lua_StateENKUlS1_E2_cvPFiS1_EEv"(ptr noundef nonnull align 1 dereferenceable(1) %0) #1 align 2 {
  %2 = alloca ptr, align 8
  store ptr %0, ptr %2, align 8
  ret ptr @"_ZZZL21DOCTEST_ANON_FUNC_128vENK3$_0clEP9lua_StateENUlS1_E2_8__invokeES1_"
}

; Function Attrs: mustprogress nounwind uwtable
define internal noundef ptr @"_ZZZL21DOCTEST_ANON_FUNC_128vENK3$_0clEP9lua_StateENKUlS1_E1_cvPFiS1_EEv"(ptr noundef nonnull align 1 dereferenceable(1) %0) #1 align 2 {
  %2 = alloca ptr, align 8
  store ptr %0, ptr %2, align 8
  ret ptr @"_ZZZL21DOCTEST_ANON_FUNC_128vENK3$_0clEP9lua_StateENUlS1_E1_8__invokeES1_"
}

; Function Attrs: mustprogress nounwind uwtable
define internal noundef ptr @"_ZZZL21DOCTEST_ANON_FUNC_128vENK3$_0clEP9lua_StateENKUlS1_E0_cvPFiS1_EEv"(ptr noundef nonnull align 1 dereferenceable(1) %0) #1 align 2 {
  %2 = alloca ptr, align 8
  store ptr %0, ptr %2, align 8
  ret ptr @"_ZZZL21DOCTEST_ANON_FUNC_128vENK3$_0clEP9lua_StateENUlS1_E0_8__invokeES1_"
}

; Function Attrs: mustprogress nounwind uwtable
define internal noundef ptr @"_ZZZL21DOCTEST_ANON_FUNC_128vENK3$_0clEP9lua_StateENKUlS1_E_cvPFiS1_EEv"(ptr noundef nonnull align 1 dereferenceable(1) %0) #1 align 2 {
  %2 = alloca ptr, align 8
  store ptr %0, ptr %2, align 8
  ret ptr @"_ZZZL21DOCTEST_ANON_FUNC_128vENK3$_0clEP9lua_StateENUlS1_E_8__invokeES1_"
}

; Function Attrs: mustprogress uwtable
define internal void @"_ZZL21DOCTEST_ANON_FUNC_128vENK3$_0clEP9lua_State"(ptr noundef nonnull align 1 dereferenceable(1) %0, ptr noundef %1) #4 align 2 {
  %3 = alloca ptr, align 8
  %4 = alloca ptr, align 8
  %5 = alloca %class.anon.705, align 1
  %6 = alloca %class.anon.707, align 1
  %7 = alloca %class.anon.709, align 1
  %8 = alloca %class.anon.711, align 1
  %9 = alloca %class.anon.713, align 1
  %10 = alloca %class.anon.715, align 1
  %11 = alloca %class.anon.717, align 1
  %12 = alloca %class.anon.719, align 1
  %13 = alloca %class.anon.721, align 1
  %14 = alloca %class.anon.723, align 1
  %15 = alloca %class.anon.725, align 1
  %16 = alloca %class.anon.727, align 1
  %17 = alloca %class.anon.729, align 1
  %18 = alloca %class.anon.731, align 1
  %19 = alloca %class.anon.733, align 1
  store ptr %0, ptr %3, align 8
  store ptr %1, ptr %4, align 8
  %20 = load ptr, ptr %4, align 8
  %21 = call noundef i32 @_Z17luaL_newmetatableP9lua_StatePKc(ptr noundef %20, ptr noundef @.str.493)
  %22 = load ptr, ptr %4, align 8
  %23 = call noundef ptr @"_ZZZL21DOCTEST_ANON_FUNC_128vENK3$_0clEP9lua_StateENKUlS1_E_cvPFiS1_EEv"(ptr noundef nonnull align 1 dereferenceable(1) %5) #16
  call void @_Z17lua_pushcclosurekP9lua_StatePFiS0_EPKciPFiS0_iE(ptr noundef %22, ptr noundef %23, ptr noundef null, i32 noundef 0, ptr noundef null)
  %24 = load ptr, ptr %4, align 8
  call void @_Z12lua_setfieldP9lua_StateiPKc(ptr noundef %24, i32 noundef -2, ptr noundef @.str.54)
  %25 = load ptr, ptr %4, align 8
  %26 = call noundef ptr @"_ZZZL21DOCTEST_ANON_FUNC_128vENK3$_0clEP9lua_StateENKUlS1_E0_cvPFiS1_EEv"(ptr noundef nonnull align 1 dereferenceable(1) %6) #16
  call void @_Z17lua_pushcclosurekP9lua_StatePFiS0_EPKciPFiS0_iE(ptr noundef %25, ptr noundef %26, ptr noundef null, i32 noundef 0, ptr noundef null)
  %27 = load ptr, ptr %4, align 8
  call void @_Z12lua_setfieldP9lua_StateiPKc(ptr noundef %27, i32 noundef -2, ptr noundef @.str.494)
  %28 = load ptr, ptr %4, align 8
  %29 = call noundef ptr @"_ZZZL21DOCTEST_ANON_FUNC_128vENK3$_0clEP9lua_StateENKUlS1_E1_cvPFiS1_EEv"(ptr noundef nonnull align 1 dereferenceable(1) %7) #16
  call void @_Z17lua_pushcclosurekP9lua_StatePFiS0_EPKciPFiS0_iE(ptr noundef %28, ptr noundef %29, ptr noundef null, i32 noundef 0, ptr noundef null)
  %30 = load ptr, ptr %4, align 8
  call void @_Z12lua_setfieldP9lua_StateiPKc(ptr noundef %30, i32 noundef -2, ptr noundef @.str.495)
  %31 = load ptr, ptr %4, align 8
  %32 = call noundef ptr @"_ZZZL21DOCTEST_ANON_FUNC_128vENK3$_0clEP9lua_StateENKUlS1_E2_cvPFiS1_EEv"(ptr noundef nonnull align 1 dereferenceable(1) %8) #16
  call void @_Z17lua_pushcclosurekP9lua_StatePFiS0_EPKciPFiS0_iE(ptr noundef %31, ptr noundef %32, ptr noundef null, i32 noundef 0, ptr noundef null)
  %33 = load ptr, ptr %4, align 8
  call void @_Z12lua_setfieldP9lua_StateiPKc(ptr noundef %33, i32 noundef -2, ptr noundef @.str.496)
  %34 = load ptr, ptr %4, align 8
  %35 = call noundef ptr @"_ZZZL21DOCTEST_ANON_FUNC_128vENK3$_0clEP9lua_StateENKUlS1_E3_cvPFiS1_EEv"(ptr noundef nonnull align 1 dereferenceable(1) %9) #16
  call void @_Z17lua_pushcclosurekP9lua_StatePFiS0_EPKciPFiS0_iE(ptr noundef %34, ptr noundef %35, ptr noundef null, i32 noundef 0, ptr noundef null)
  %36 = load ptr, ptr %4, align 8
  call void @_Z12lua_setfieldP9lua_StateiPKc(ptr noundef %36, i32 noundef -2, ptr noundef @.str.497)
  %37 = load ptr, ptr %4, align 8
  %38 = call noundef ptr @"_ZZZL21DOCTEST_ANON_FUNC_128vENK3$_0clEP9lua_StateENKUlS1_E4_cvPFiS1_EEv"(ptr noundef nonnull align 1 dereferenceable(1) %10) #16
  call void @_Z17lua_pushcclosurekP9lua_StatePFiS0_EPKciPFiS0_iE(ptr noundef %37, ptr noundef %38, ptr noundef null, i32 noundef 0, ptr noundef null)
  %39 = load ptr, ptr %4, align 8
  call void @_Z12lua_setfieldP9lua_StateiPKc(ptr noundef %39, i32 noundef -2, ptr noundef @.str.57)
  %40 = load ptr, ptr %4, align 8
  %41 = call noundef ptr @"_ZZZL21DOCTEST_ANON_FUNC_128vENK3$_0clEP9lua_StateENKUlS1_E5_cvPFiS1_EEv"(ptr noundef nonnull align 1 dereferenceable(1) %11) #16
  call void @_Z17lua_pushcclosurekP9lua_StatePFiS0_EPKciPFiS0_iE(ptr noundef %40, ptr noundef %41, ptr noundef null, i32 noundef 0, ptr noundef null)
  %42 = load ptr, ptr %4, align 8
  call void @_Z12lua_setfieldP9lua_StateiPKc(ptr noundef %42, i32 noundef -2, ptr noundef @.str.58)
  %43 = load ptr, ptr %4, align 8
  %44 = call noundef ptr @"_ZZZL21DOCTEST_ANON_FUNC_128vENK3$_0clEP9lua_StateENKUlS1_E6_cvPFiS1_EEv"(ptr noundef nonnull align 1 dereferenceable(1) %12) #16
  call void @_Z17lua_pushcclosurekP9lua_StatePFiS0_EPKciPFiS0_iE(ptr noundef %43, ptr noundef %44, ptr noundef null, i32 noundef 0, ptr noundef null)
  %45 = load ptr, ptr %4, align 8
  call void @_Z12lua_setfieldP9lua_StateiPKc(ptr noundef %45, i32 noundef -2, ptr noundef @.str.59)
  %46 = load ptr, ptr %4, align 8
  %47 = call noundef ptr @"_ZZZL21DOCTEST_ANON_FUNC_128vENK3$_0clEP9lua_StateENKUlS1_E7_cvPFiS1_EEv"(ptr noundef nonnull align 1 dereferenceable(1) %13) #16
  call void @_Z17lua_pushcclosurekP9lua_StatePFiS0_EPKciPFiS0_iE(ptr noundef %46, ptr noundef %47, ptr noundef null, i32 noundef 0, ptr noundef null)
  %48 = load ptr, ptr %4, align 8
  call void @_Z12lua_setfieldP9lua_StateiPKc(ptr noundef %48, i32 noundef -2, ptr noundef @.str.60)
  %49 = load ptr, ptr %4, align 8
  %50 = call noundef ptr @"_ZZZL21DOCTEST_ANON_FUNC_128vENK3$_0clEP9lua_StateENKUlS1_E8_cvPFiS1_EEv"(ptr noundef nonnull align 1 dereferenceable(1) %14) #16
  call void @_Z17lua_pushcclosurekP9lua_StatePFiS0_EPKciPFiS0_iE(ptr noundef %49, ptr noundef %50, ptr noundef null, i32 noundef 0, ptr noundef null)
  %51 = load ptr, ptr %4, align 8
  call void @_Z12lua_setfieldP9lua_StateiPKc(ptr noundef %51, i32 noundef -2, ptr noundef @.str.498)
  %52 = load ptr, ptr %4, align 8
  %53 = call noundef ptr @"_ZZZL21DOCTEST_ANON_FUNC_128vENK3$_0clEP9lua_StateENKUlS1_E9_cvPFiS1_EEv"(ptr noundef nonnull align 1 dereferenceable(1) %15) #16
  call void @_Z17lua_pushcclosurekP9lua_StatePFiS0_EPKciPFiS0_iE(ptr noundef %52, ptr noundef %53, ptr noundef null, i32 noundef 0, ptr noundef null)
  %54 = load ptr, ptr %4, align 8
  call void @_Z12lua_setfieldP9lua_StateiPKc(ptr noundef %54, i32 noundef -2, ptr noundef @.str.499)
  %55 = load ptr, ptr %4, align 8
  %56 = call noundef ptr @"_ZZZL21DOCTEST_ANON_FUNC_128vENK3$_0clEP9lua_StateENKUlS1_E10_cvPFiS1_EEv"(ptr noundef nonnull align 1 dereferenceable(1) %16) #16
  call void @_Z17lua_pushcclosurekP9lua_StatePFiS0_EPKciPFiS0_iE(ptr noundef %55, ptr noundef %56, ptr noundef null, i32 noundef 0, ptr noundef null)
  %57 = load ptr, ptr %4, align 8
  call void @_Z12lua_setfieldP9lua_StateiPKc(ptr noundef %57, i32 noundef -2, ptr noundef @.str.500)
  %58 = load ptr, ptr %4, align 8
  %59 = call noundef ptr @"_ZZZL21DOCTEST_ANON_FUNC_128vENK3$_0clEP9lua_StateENKUlS1_E11_cvPFiS1_EEv"(ptr noundef nonnull align 1 dereferenceable(1) %17) #16
  call void @_Z17lua_pushcclosurekP9lua_StatePFiS0_EPKciPFiS0_iE(ptr noundef %58, ptr noundef %59, ptr noundef null, i32 noundef 0, ptr noundef null)
  %60 = load ptr, ptr %4, align 8
  call void @_Z12lua_setfieldP9lua_StateiPKc(ptr noundef %60, i32 noundef -2, ptr noundef @.str.61)
  %61 = load ptr, ptr %4, align 8
  %62 = call noundef ptr @"_ZZZL21DOCTEST_ANON_FUNC_128vENK3$_0clEP9lua_StateENKUlS1_E12_cvPFiS1_EEv"(ptr noundef nonnull align 1 dereferenceable(1) %18) #16
  call void @_Z17lua_pushcclosurekP9lua_StatePFiS0_EPKciPFiS0_iE(ptr noundef %61, ptr noundef %62, ptr noundef null, i32 noundef 0, ptr noundef null)
  %63 = load ptr, ptr %4, align 8
  call void @_Z12lua_setfieldP9lua_StateiPKc(ptr noundef %63, i32 noundef -2, ptr noundef @.str.501)
  %64 = load ptr, ptr %4, align 8
  %65 = call noundef ptr @"_ZZZL21DOCTEST_ANON_FUNC_128vENK3$_0clEP9lua_StateENKUlS1_E13_cvPFiS1_EEv"(ptr noundef nonnull align 1 dereferenceable(1) %19) #16
  call void @_Z17lua_pushcclosurekP9lua_StatePFiS0_EPKciPFiS0_iE(ptr noundef %64, ptr noundef %65, ptr noundef @.str.493, i32 noundef 0, ptr noundef null)
  %66 = load ptr, ptr %4, align 8
  call void @_Z12lua_setfieldP9lua_StateiPKc(ptr noundef %66, i32 noundef -10002, ptr noundef @.str.493)
  ret void
}

; Function Attrs: mustprogress uwtable
define internal void @"_ZZL21DOCTEST_ANON_FUNC_128vEN3$_08__invokeEP9lua_State"(ptr noundef %0) #4 align 2 {
  %2 = alloca ptr, align 8
  %3 = alloca %class.anon.703, align 1
  store ptr %0, ptr %2, align 8
  %4 = load ptr, ptr %2, align 8
  call void @"_ZZL21DOCTEST_ANON_FUNC_128vENK3$_0clEP9lua_State"(ptr noundef nonnull align 1 dereferenceable(1) %3, ptr noundef %4)
  ret void
}